; Function Attrs: noinline norecurse nounwind uwtable
define internal void @_ZNK8LightGBM7Dataset24ConstructHistogramsInnerILb1ELb1ELb1ELi32EEEvRKSt6vectorIaSaIaEEPKiiPKfSA_PfSB_PNS_19TrainingShareStatesEPd.omp_outlined(ptr noalias noundef readonly captures(none) %0, ptr noalias readnone captures(none) %1, ptr noundef nonnull readonly align 4 captures(none) dereferenceable(4) %2, ptr noundef nonnull readonly align 8 captures(none) dereferenceable(8) %3, ptr noundef nonnull readonly align 8 captures(none) dereferenceable(8) %4, ptr noundef nonnull readonly align 8 captures(none) dereferenceable(8) %5) #19 {
  %7 = alloca i32, align 4
  %8 = alloca i32, align 4
  %9 = alloca i32, align 4
  %10 = alloca i32, align 4
  %11 = load i32, ptr %2, align 4, !tbaa !104
  %12 = add nsw i32 %11, -1
  %13 = icmp sgt i32 %11, 0
  br i1 %13, label %14, label %35

14:                                               ; preds = %6
  call void @llvm.lifetime.start.p0(i64 4, ptr nonnull %7) #20
  store i32 0, ptr %7, align 4, !tbaa !104
  call void @llvm.lifetime.start.p0(i64 4, ptr nonnull %8) #20
  store i32 %12, ptr %8, align 4, !tbaa !104
  call void @llvm.lifetime.start.p0(i64 4, ptr nonnull %9) #20
  store i32 1, ptr %9, align 4, !tbaa !104
  call void @llvm.lifetime.start.p0(i64 4, ptr nonnull %10) #20
  store i32 0, ptr %10, align 4, !tbaa !104
  %15 = load i32, ptr %0, align 4, !tbaa !104
  call void @__kmpc_for_static_init_4(ptr nonnull @1, i32 %15, i32 33, ptr nonnull %10, ptr nonnull %7, ptr nonnull %8, ptr nonnull %9, i32 1, i32 512)
  %.promoted = load i32, ptr %8, align 4, !tbaa !104
  %.promoted19 = load i32, ptr %7, align 4, !tbaa !104
  %16 = call i32 @llvm.smin.i32(i32 %.promoted, i32 %12)
  store i32 %16, ptr %8, align 4, !tbaa !104
  %.not20 = icmp sgt i32 %.promoted19, %16
  br i1 %.not20, label %._crit_edge, label %.preheader.lr.ph

.preheader.lr.ph:                                 ; preds = %14
  %17 = load ptr, ptr %4, align 8, !tbaa !203
  %18 = load ptr, ptr %5, align 8, !tbaa !152
  %19 = load ptr, ptr %3, align 8, !tbaa !203
  %20 = load i32, ptr %9, align 4, !tbaa !104
  %21 = sext i32 %.promoted19 to i64
  %22 = sext i32 %20 to i64
  br label %.preheader

.preheader:                                       ; preds = %.preheader.lr.ph, %32
  %indvars.iv = phi i64 [ %21, %.preheader.lr.ph ], [ %indvars.iv.next, %32 ]
  %23 = phi i32 [ %16, %.preheader.lr.ph ], [ %34, %32 ]
  %24 = sext i32 %23 to i64
  br label %25

25:                                               ; preds = %.preheader, %25
  %indvars.iv21 = phi i64 [ %indvars.iv, %.preheader ], [ %indvars.iv.next22, %25 ]
  %26 = getelementptr inbounds i32, ptr %18, i64 %indvars.iv21
  %27 = load i32, ptr %26, align 4, !tbaa !104
  %28 = sext i32 %27 to i64
  %29 = getelementptr inbounds i16, ptr %17, i64 %28
  %30 = load i16, ptr %29, align 2, !tbaa !244
  %31 = getelementptr inbounds i16, ptr %19, i64 %indvars.iv21
  store i16 %30, ptr %31, align 2, !tbaa !244
  %indvars.iv.next22 = add nsw i64 %indvars.iv21, 1
  %.not17.not = icmp slt i64 %indvars.iv21, %24
  br i1 %.not17.not, label %25, label %32

32:                                               ; preds = %25
  %indvars.iv.next = add i64 %indvars.iv, %22
  %indvars = trunc i64 %indvars.iv.next to i32
  store i32 %indvars, ptr %7, align 4, !tbaa !104
  %33 = add nsw i32 %20, %23
  %34 = call i32 @llvm.smin.i32(i32 %33, i32 %12)
  store i32 %34, ptr %8, align 4, !tbaa !104
  %.not = icmp slt i32 %34, %indvars
  br i1 %.not, label %._crit_edge, label %.preheader

._crit_edge:                                      ; preds = %32, %14
  call void @__kmpc_for_static_fini(ptr nonnull @1, i32 %15)
  call void @llvm.lifetime.end.p0(i64 4, ptr nonnull %10) #20
  call void @llvm.lifetime.end.p0(i64 4, ptr nonnull %9) #20
  call void @llvm.lifetime.end.p0(i64 4, ptr nonnull %8) #20
  call void @llvm.lifetime.end.p0(i64 4, ptr nonnull %7) #20
  br label %35

35:                                               ; preds = %._crit_edge, %6
  ret void
}